target datalayout = "e-m:e-p270:32:32-p271:32:32-p272:64:64-i64:64-i128:128-f80:128-n8:16:32:64-S128"
target triple = "x86_64-pc-linux-gnu"

@_ZL14invariantChars = internal constant [4 x i32] [i32 -1025, i32 -27, i32 -2013265922, i32 -2013265922], align 16

; Function Attrs: mustprogress uwtable
define i32 @uprv_compareInvAscii_77(ptr noundef %0, ptr noundef %1, i32 noundef %2, ptr noundef %3, i32 noundef %4) #2 {
  %6 = alloca i32, align 4
  %7 = alloca ptr, align 8
  %8 = alloca ptr, align 8
  %9 = alloca i32, align 4
  %10 = alloca ptr, align 8
  %11 = alloca i32, align 4
  %12 = alloca i32, align 4
  %13 = alloca i32, align 4
  %14 = alloca i32, align 4
  %15 = alloca i8, align 1
  %16 = alloca i32, align 4
  store ptr %0, ptr %7, align 8, !tbaa !20
  store ptr %1, ptr %8, align 8, !tbaa !3
  store i32 %2, ptr %9, align 4, !tbaa !10
  store ptr %3, ptr %10, align 8, !tbaa !8
  store i32 %4, ptr %11, align 4, !tbaa !10
  call void @llvm.lifetime.start.p0(i64 4, ptr %12) #7
  call void @llvm.lifetime.start.p0(i64 4, ptr %13) #7
  call void @llvm.lifetime.start.p0(i64 4, ptr %14) #7
  call void @llvm.lifetime.start.p0(i64 1, ptr %15) #7
  %17 = load ptr, ptr %8, align 8, !tbaa !3
  %18 = icmp eq ptr %17, null
  br i1 %18, label %28, label %19

19:                                               ; preds = %5
  %20 = load i32, ptr %9, align 4, !tbaa !10
  %21 = icmp slt i32 %20, -1
  br i1 %21, label %28, label %22

22:                                               ; preds = %19
  %23 = load ptr, ptr %10, align 8, !tbaa !8
  %24 = icmp eq ptr %23, null
  br i1 %24, label %28, label %25

25:                                               ; preds = %22
  %26 = load i32, ptr %11, align 4, !tbaa !10
  %27 = icmp slt i32 %26, -1
  br i1 %27, label %28, label %29

28:                                               ; preds = %25, %22, %19, %5
  store i32 0, ptr %6, align 4
  store i32 1, ptr %16, align 4
  br label %112

29:                                               ; preds = %25
  %30 = load i32, ptr %9, align 4, !tbaa !10
  %31 = icmp slt i32 %30, 0
  br i1 %31, label %32, label %36

32:                                               ; preds = %29
  %33 = load ptr, ptr %8, align 8, !tbaa !3
  %34 = call i64 @strlen(ptr noundef %33) #8
  %35 = trunc i64 %34 to i32
  store i32 %35, ptr %9, align 4, !tbaa !10
  br label %36

36:                                               ; preds = %32, %29
  %37 = load i32, ptr %11, align 4, !tbaa !10
  %38 = icmp slt i32 %37, 0
  br i1 %38, label %39, label %42

39:                                               ; preds = %36
  %40 = load ptr, ptr %10, align 8, !tbaa !8
  %41 = call i32 @u_strlen_77(ptr noundef %40)
  store i32 %41, ptr %11, align 4, !tbaa !10
  br label %42

42:                                               ; preds = %39, %36
  %43 = load i32, ptr %9, align 4, !tbaa !10
  %44 = load i32, ptr %11, align 4, !tbaa !10
  %45 = icmp slt i32 %43, %44
  br i1 %45, label %46, label %48

46:                                               ; preds = %42
  %47 = load i32, ptr %9, align 4, !tbaa !10
  br label %50

48:                                               ; preds = %42
  %49 = load i32, ptr %11, align 4, !tbaa !10
  br label %50

50:                                               ; preds = %48, %46
  %51 = phi i32 [ %47, %46 ], [ %49, %48 ]
  store i32 %51, ptr %12, align 4, !tbaa !10
  br label %52

52:                                               ; preds = %105, %50
  %53 = load i32, ptr %12, align 4, !tbaa !10
  %54 = icmp sgt i32 %53, 0
  br i1 %54, label %55, label %108

55:                                               ; preds = %52
  %56 = load ptr, ptr %8, align 8, !tbaa !3
  %57 = getelementptr inbounds nuw i8, ptr %56, i32 1
  store ptr %57, ptr %8, align 8, !tbaa !3
  %58 = load i8, ptr %56, align 1, !tbaa !12
  store i8 %58, ptr %15, align 1, !tbaa !12
  %59 = load i8, ptr %15, align 1, !tbaa !12
  %60 = zext i8 %59 to i32
  %61 = icmp sle i32 %60, 127
  br i1 %61, label %62, label %78

62:                                               ; preds = %55
  %63 = load i8, ptr %15, align 1, !tbaa !12
  %64 = zext i8 %63 to i32
  %65 = ashr i32 %64, 5
  %66 = sext i32 %65 to i64
  %67 = getelementptr inbounds [4 x i32], ptr @_ZL14invariantChars, i64 0, i64 %66
  %68 = load i32, ptr %67, align 4, !tbaa !10
  %69 = load i8, ptr %15, align 1, !tbaa !12
  %70 = zext i8 %69 to i32
  %71 = and i32 %70, 31
  %72 = shl i32 1, %71
  %73 = and i32 %68, %72
  %74 = icmp ne i32 %73, 0
  br i1 %74, label %75, label %78

75:                                               ; preds = %62
  %76 = load i8, ptr %15, align 1, !tbaa !12
  %77 = zext i8 %76 to i32
  store i32 %77, ptr %13, align 4, !tbaa !10
  br label %79

78:                                               ; preds = %62, %55
  store i32 -1, ptr %13, align 4, !tbaa !10
  br label %79

79:                                               ; preds = %78, %75
  %80 = load ptr, ptr %10, align 8, !tbaa !8
  %81 = getelementptr inbounds nuw i16, ptr %80, i32 1
  store ptr %81, ptr %10, align 8, !tbaa !8
  %82 = load i16, ptr %80, align 2, !tbaa !13
  %83 = zext i16 %82 to i32
  store i32 %83, ptr %14, align 4, !tbaa !10
  %84 = load i32, ptr %14, align 4, !tbaa !10
  %85 = icmp sle i32 %84, 127
  br i1 %85, label %86, label %97

86:                                               ; preds = %79
  %87 = load i32, ptr %14, align 4, !tbaa !10
  %88 = ashr i32 %87, 5
  %89 = sext i32 %88 to i64
  %90 = getelementptr inbounds [4 x i32], ptr @_ZL14invariantChars, i64 0, i64 %89
  %91 = load i32, ptr %90, align 4, !tbaa !10
  %92 = load i32, ptr %14, align 4, !tbaa !10
  %93 = and i32 %92, 31
  %94 = shl i32 1, %93
  %95 = and i32 %91, %94
  %96 = icmp ne i32 %95, 0
  br i1 %96, label %98, label %97

97:                                               ; preds = %86, %79
  store i32 -2, ptr %14, align 4, !tbaa !10
  br label %98

98:                                               ; preds = %97, %86
  %99 = load i32, ptr %14, align 4, !tbaa !10
  %100 = load i32, ptr %13, align 4, !tbaa !10
  %101 = sub nsw i32 %100, %99
  store i32 %101, ptr %13, align 4, !tbaa !10
  %102 = icmp ne i32 %101, 0
  br i1 %102, label %103, label %105

103:                                              ; preds = %98
  %104 = load i32, ptr %13, align 4, !tbaa !10
  store i32 %104, ptr %6, align 4
  store i32 1, ptr %16, align 4
  br label %112

105:                                              ; preds = %98
  %106 = load i32, ptr %12, align 4, !tbaa !10
  %107 = add nsw i32 %106, -1
  store i32 %107, ptr %12, align 4, !tbaa !10
  br label %52, !llvm.loop !29

108:                                              ; preds = %52
  %109 = load i32, ptr %9, align 4, !tbaa !10
  %110 = load i32, ptr %11, align 4, !tbaa !10
  %111 = sub nsw i32 %109, %110
  store i32 %111, ptr %6, align 4
  store i32 1, ptr %16, align 4
  br label %112

112:                                              ; preds = %108, %103, %28
  call void @llvm.lifetime.end.p0(i64 1, ptr %15) #7
  call void @llvm.lifetime.end.p0(i64 4, ptr %14) #7
  call void @llvm.lifetime.end.p0(i64 4, ptr %13) #7
  call void @llvm.lifetime.end.p0(i64 4, ptr %12) #7
  %113 = load i32, ptr %6, align 4
  ret i32 %113
}