; Function Attrs: mustprogress uwtable
define i32 @uprv_compareInvAscii_77(ptr noundef readnone captures(none) %0, ptr noundef readonly %1, i32 noundef %2, ptr noundef %3, i32 noundef %4) local_unnamed_addr #2 {
  %6 = icmp eq ptr %1, null
  %7 = icmp slt i32 %2, -1
  %or.cond = or i1 %6, %7
  %8 = icmp eq ptr %3, null
  %or.cond3 = or i1 %or.cond, %8
  %9 = icmp slt i32 %4, -1
  %or.cond5 = or i1 %or.cond3, %9
  br i1 %or.cond5, label %.loopexit, label %10

10:                                               ; preds = %5
  %11 = icmp slt i32 %2, 0
  br i1 %11, label %12, label %15

12:                                               ; preds = %10
  %13 = tail call i64 @strlen(ptr noundef nonnull dereferenceable(1) %1) #12
  %14 = trunc i64 %13 to i32
  br label %15

15:                                               ; preds = %12, %10
  %.038 = phi i32 [ %14, %12 ], [ %2, %10 ]
  %16 = icmp slt i32 %4, 0
  br i1 %16, label %17, label %19

17:                                               ; preds = %15
  %18 = tail call i32 @u_strlen_77(ptr noundef nonnull %3)
  br label %19

19:                                               ; preds = %17, %15
  %.036 = phi i32 [ %18, %17 ], [ %4, %15 ]
  %20 = tail call i32 @llvm.smin.i32(i32 %.038, i32 %.036)
  %21 = icmp sgt i32 %20, 0
  br i1 %21, label %.lr.ph, label %._crit_edge

22:                                               ; preds = %52
  %23 = add nsw i32 %.03551, -1
  %24 = icmp sgt i32 %.03551, 1
  br i1 %24, label %.lr.ph, label %._crit_edge, !llvm.loop !21

.lr.ph:                                           ; preds = %19, %22
  %.03551 = phi i32 [ %23, %22 ], [ %20, %19 ]
  %.03750 = phi ptr [ %39, %22 ], [ %3, %19 ]
  %.03949 = phi ptr [ %25, %22 ], [ %1, %19 ]
  %25 = getelementptr inbounds nuw i8, ptr %.03949, i64 1
  %26 = load i8, ptr %.03949, align 1, !tbaa !3
  %27 = icmp sgt i8 %26, -1
  br i1 %27, label %28, label %37

28:                                               ; preds = %.lr.ph
  %29 = zext nneg i8 %26 to i32
  %30 = lshr i32 %29, 5
  %31 = zext nneg i32 %30 to i64
  %32 = getelementptr inbounds nuw [4 x i32], ptr @_ZL14invariantChars, i64 0, i64 %31
  %33 = load i32, ptr %32, align 4, !tbaa !10
  %34 = and i32 %29, 31
  %35 = shl nuw i32 1, %34
  %36 = and i32 %33, %35
  %.not = icmp eq i32 %36, 0
  br i1 %.not, label %37, label %38

37:                                               ; preds = %28, %.lr.ph
  br label %38

38:                                               ; preds = %28, %37
  %.034 = phi i32 [ -1, %37 ], [ %29, %28 ]
  %39 = getelementptr inbounds nuw i8, ptr %.03750, i64 2
  %40 = load i16, ptr %.03750, align 2, !tbaa !6
  %41 = icmp ult i16 %40, 128
  br i1 %41, label %42, label %51

42:                                               ; preds = %38
  %43 = zext nneg i16 %40 to i32
  %44 = lshr i32 %43, 5
  %45 = zext nneg i32 %44 to i64
  %46 = getelementptr inbounds nuw [4 x i32], ptr @_ZL14invariantChars, i64 0, i64 %45
  %47 = load i32, ptr %46, align 4, !tbaa !10
  %48 = and i32 %43, 31
  %49 = shl nuw i32 1, %48
  %50 = and i32 %47, %49
  %.not47 = icmp eq i32 %50, 0
  br i1 %.not47, label %51, label %52

51:                                               ; preds = %42, %38
  br label %52

52:                                               ; preds = %51, %42
  %.033 = phi i32 [ %43, %42 ], [ -2, %51 ]
  %53 = sub nsw i32 %.034, %.033
  %.not48 = icmp eq i32 %53, 0
  br i1 %.not48, label %22, label %.loopexit

._crit_edge:                                      ; preds = %22, %19
  %54 = sub nsw i32 %.038, %.036
  br label %.loopexit

.loopexit:                                        ; preds = %52, %5, %._crit_edge
  %.0 = phi i32 [ %54, %._crit_edge ], [ 0, %5 ], [ %53, %52 ]
  ret i32 %.0
}